target datalayout = "e-m:e-p270:32:32-p271:32:32-p272:64:64-i64:64-i128:128-f80:128-n8:16:32:64-S128"
target triple = "x86_64-pc-linux-gnu"

@.str.70 = private unnamed_addr constant [1 x i8] zeroinitializer, align 1

; Function Attrs: nounwind uwtable
define dso_local zeroext i1 @check_recovery_target_lsn(ptr noundef %0, ptr noundef %1, i32 noundef %2) #0 {
  %4 = alloca i1, align 1
  %5 = alloca ptr, align 8
  %6 = alloca ptr, align 8
  %7 = alloca i32, align 4
  %8 = alloca i64, align 8
  %9 = alloca ptr, align 8
  %10 = alloca i8, align 1
  %11 = alloca i32, align 4
  store ptr %0, ptr %5, align 8
  store ptr %1, ptr %6, align 8
  store i32 %2, ptr %7, align 4
  %12 = load ptr, ptr %5, align 8
  %13 = load ptr, ptr %12, align 8
  %14 = call i32 @strcmp(ptr noundef %13, ptr noundef @.str.70) #16
  %15 = icmp ne i32 %14, 0
  br i1 %15, label %16, label %32

16:                                               ; preds = %3
  call void @llvm.lifetime.start.p0(i64 8, ptr %8) #14
  call void @llvm.lifetime.start.p0(i64 8, ptr %9) #14
  call void @llvm.lifetime.start.p0(i64 1, ptr %10) #14
  store i8 0, ptr %10, align 1
  %17 = load ptr, ptr %5, align 8
  %18 = load ptr, ptr %17, align 8
  %19 = call i64 @pg_lsn_in_internal(ptr noundef %18, ptr noundef %10)
  store i64 %19, ptr %8, align 8
  %20 = load i8, ptr %10, align 1, !range !4, !noundef !5
  %21 = trunc i8 %20 to i1
  br i1 %21, label %22, label %23

22:                                               ; preds = %16
  store i1 false, ptr %4, align 1
  store i32 1, ptr %11, align 4
  br label %29

23:                                               ; preds = %16
  %24 = call ptr @guc_malloc(i32 noundef 21, i64 noundef 8)
  store ptr %24, ptr %9, align 8
  %25 = load i64, ptr %8, align 8
  %26 = load ptr, ptr %9, align 8
  store i64 %25, ptr %26, align 8
  %27 = load ptr, ptr %9, align 8
  %28 = load ptr, ptr %6, align 8
  store ptr %27, ptr %28, align 8
  store i32 0, ptr %11, align 4
  br label %29

29:                                               ; preds = %23, %22
  call void @llvm.lifetime.end.p0(i64 1, ptr %10) #14
  call void @llvm.lifetime.end.p0(i64 8, ptr %9) #14
  call void @llvm.lifetime.end.p0(i64 8, ptr %8) #14
  %30 = load i32, ptr %11, align 4
  switch i32 %30, label %35 [
    i32 0, label %31
    i32 1, label %33
  ]

31:                                               ; preds = %29
  br label %32

32:                                               ; preds = %31, %3
  store i1 true, ptr %4, align 1
  br label %33

33:                                               ; preds = %32, %29
  %34 = load i1, ptr %4, align 1
  ret i1 %34

35:                                               ; preds = %29
  unreachable
}