; Function Attrs: nounwind uwtable
define dso_local noundef zeroext i1 @check_recovery_target_lsn(ptr noundef readonly captures(none) %0, ptr noundef writeonly captures(none) %1, i32 noundef %2) local_unnamed_addr #2 {
  %4 = alloca i8, align 1
  %5 = load ptr, ptr %0, align 8
  %strcmpload = load i8, ptr %5, align 1
  %.not = icmp eq i8 %strcmpload, 0
  br i1 %.not, label %11, label %6

6:                                                ; preds = %3
  call void @llvm.lifetime.start.p0(i64 1, ptr nonnull %4) #23
  store i8 0, ptr %4, align 1
  %7 = call i64 @pg_lsn_in_internal(ptr noundef nonnull %5, ptr noundef nonnull %4) #23
  %8 = load i8, ptr %4, align 1, !range !4, !noundef !5
  %9 = trunc nuw i8 %8 to i1
  br i1 %9, label %.sink.split, label %.thread

.thread:                                          ; preds = %6
  %10 = call ptr @guc_malloc(i32 noundef 21, i64 noundef 8) #23
  store i64 %7, ptr %10, align 8
  store ptr %10, ptr %1, align 8
  br label %.sink.split

.sink.split:                                      ; preds = %6, %.thread
  %.1.ph = xor i1 %9, true
  call void @llvm.lifetime.end.p0(i64 1, ptr nonnull %4) #23
  br label %11

11:                                               ; preds = %.sink.split, %3
  %.1 = phi i1 [ true, %3 ], [ %.1.ph, %.sink.split ]
  ret i1 %.1
}